; Function Attrs: nounwind uwtable
define dso_local i32 @LookupCreationNamespace(ptr noundef %0) local_unnamed_addr #0 {
  %2 = tail call i32 @strcmp(ptr noundef nonnull dereferenceable(1) %0, ptr noundef nonnull dereferenceable(8) @.str.7) #20
  %3 = icmp eq i32 %2, 0
  br i1 %3, label %4, label %6

4:                                                ; preds = %1
  tail call fastcc void @AccessTempTableNamespace(i1 noundef zeroext false)
  %5 = load i32, ptr @myTempNamespace, align 4
  br label %16

6:                                                ; preds = %1
  %7 = ptrtoint ptr %0 to i64
  %8 = tail call i32 @GetSysCacheOid(i32 noundef 37, i16 noundef signext 1, i64 noundef %7, i64 noundef 0, i64 noundef 0, i64 noundef 0) #19
  %.not.i.not = icmp eq i32 %8, 0
  br i1 %.not.i.not, label %9, label %get_namespace_oid.exit

9:                                                ; preds = %6
  %10 = tail call zeroext i1 @errstart_cold(i32 noundef 21, ptr noundef null) #21
  tail call void @llvm.assume(i1 %10)
  %11 = tail call i32 @errcode(i32 noundef 1411) #19
  %12 = tail call i32 (ptr, ...) @errmsg(ptr noundef nonnull @.str.22, ptr noundef nonnull %0) #19
  tail call void @errfinish(ptr noundef nonnull @.str.1, i32 noundef 3544, ptr noundef nonnull @__func__.get_namespace_oid) #19
  unreachable

get_namespace_oid.exit:                           ; preds = %6
  %13 = tail call i32 @GetUserId() #19
  %14 = tail call i32 @object_aclcheck(i32 noundef 2615, i32 noundef %8, i32 noundef %13, i64 noundef 512) #19
  %.not = icmp eq i32 %14, 0
  br i1 %.not, label %16, label %15

15:                                               ; preds = %get_namespace_oid.exit
  tail call void @aclcheck_error(i32 noundef %14, i32 noundef 36, ptr noundef nonnull %0) #19
  br label %16

16:                                               ; preds = %get_namespace_oid.exit, %15, %4
  %.0 = phi i32 [ %5, %4 ], [ %8, %15 ], [ %8, %get_namespace_oid.exit ]
  ret i32 %.0
}